/*
 * Intel ACPI Component Architecture
 * AML/ASL+ Disassembler version 20250404 (64-bit version)
 * Copyright (c) 2000 - 2025 Intel Corporation
 * 
 * Disassembly of ./encoded/msdm.dat
 *
 * ACPI Data Table [MSDM]
 *
 * Format: [HexOffset DecimalOffset ByteLength]  FieldName : FieldValue (in hex)
 */

[000h 0000 004h]                   Signature : "MSDM"    [Microsoft Data Management Table]
[004h 0004 004h]                Table Length : 00000055
[008h 0008 001h]                    Revision : 03
[009h 0009 001h]                    Checksum : 73
[00Ah 0010 006h]                      Oem ID : "LENOVO"
[010h 0016 008h]                Oem Table ID : "CB-01   "
[018h 0024 004h]                Oem Revision : 00000001
[01Ch 0028 004h]             Asl Compiler ID : "ACPI"
[020h 0032 004h]       Asl Compiler Revision : 00040000

[024h 0036 031h] Software Licensing Structure : 01 00 00 00 00 00 00 00 01 00 00 00 00 00 00 00 /* ................ */\
/* 034h 0052  16 */                            1D 00 00 00 46 36 4B 34 59 2D 4E 4A 58 48 36 2D /* ....F6K4Y-NJXH6- */\
/* 044h 0068  16 */                            36 39 48 4A 42 2D 58 58 44 52 52 2D 37 48 33 48 /* 69HJB-XXDRR-7H3H */\
/* 054h 0084   1 */                            32                                              /* 2 */\

Raw Table Data: Length 85 (0x55)

    0000: 4D 53 44 4D 55 00 00 00 03 73 4C 45 4E 4F 56 4F  // MSDMU....sLENOVO
    0010: 43 42 2D 30 31 20 20 20 01 00 00 00 41 43 50 49  // CB-01   ....ACPI
    0020: 00 00 04 00 01 00 00 00 00 00 00 00 01 00 00 00  // ................
    0030: 00 00 00 00 1D 00 00 00 46 36 4B 34 59 2D 4E 4A  // ........F6K4Y-NJ
    0040: 58 48 36 2D 36 39 48 4A 42 2D 58 58 44 52 52 2D  // XH6-69HJB-XXDRR-
    0050: 37 48 33 48 32                                   // 7H3H2
