/*
 * Intel ACPI Component Architecture
 * AML/ASL+ Disassembler version 20240322 (64-bit version)
 * Copyright (c) 2000 - 2023 Intel Corporation
 * 
 * Disassembly of ./encoded/apic.dat
 *
 * ACPI Data Table [APIC]
 *
 * Format: [HexOffset DecimalOffset ByteLength]  FieldName : FieldValue (in hex)
 */

[000h 0000 004h]                   Signature : "APIC"    [Multiple APIC Description Table (MADT)]
[004h 0004 004h]                Table Length : 00000128
[008h 0008 001h]                    Revision : 06
[009h 0009 001h]                    Checksum : D5
[00Ah 0010 006h]                      Oem ID : "ALASKA"
[010h 0016 008h]                Oem Table ID : "A M I "
[018h 0024 004h]                Oem Revision : 01072009
[01Ch 0028 004h]             Asl Compiler ID : "AMI "
[020h 0032 004h]       Asl Compiler Revision : 00010013

[024h 0036 004h]          Local Apic Address : FEE00000
[028h 0040 004h]       Flags (decoded below) : 00000001
                         PC-AT Compatibility : 1

[02Ch 0044 001h]               Subtable Type : 00 [Processor Local APIC]
[02Dh 0045 001h]                      Length : 08
[02Eh 0046 001h]                Processor ID : 00
[02Fh 0047 001h]               Local Apic ID : 00
[030h 0048 004h]       Flags (decoded below) : 00000001
                           Processor Enabled : 1
                      Runtime Online Capable : 0

[034h 0052 001h]               Subtable Type : 00 [Processor Local APIC]
[035h 0053 001h]                      Length : 08
[036h 0054 001h]                Processor ID : 02
[037h 0055 001h]               Local Apic ID : 02
[038h 0056 004h]       Flags (decoded below) : 00000001
                           Processor Enabled : 1
                      Runtime Online Capable : 0

[03Ch 0060 001h]               Subtable Type : 00 [Processor Local APIC]
[03Dh 0061 001h]                      Length : 08
[03Eh 0062 001h]                Processor ID : 04
[03Fh 0063 001h]               Local Apic ID : 04
[040h 0064 004h]       Flags (decoded below) : 00000001
                           Processor Enabled : 1
                      Runtime Online Capable : 0

[044h 0068 001h]               Subtable Type : 00 [Processor Local APIC]
[045h 0069 001h]                      Length : 08
[046h 0070 001h]                Processor ID : 06
[047h 0071 001h]               Local Apic ID : 06
[048h 0072 004h]       Flags (decoded below) : 00000001
                           Processor Enabled : 1
                      Runtime Online Capable : 0

[04Ch 0076 001h]               Subtable Type : 00 [Processor Local APIC]
[04Dh 0077 001h]                      Length : 08
[04Eh 0078 001h]                Processor ID : 08
[04Fh 0079 001h]               Local Apic ID : 10
[050h 0080 004h]       Flags (decoded below) : 00000001
                           Processor Enabled : 1
                      Runtime Online Capable : 0

[054h 0084 001h]               Subtable Type : 00 [Processor Local APIC]
[055h 0085 001h]                      Length : 08
[056h 0086 001h]                Processor ID : 0A
[057h 0087 001h]               Local Apic ID : 12
[058h 0088 004h]       Flags (decoded below) : 00000001
                           Processor Enabled : 1
                      Runtime Online Capable : 0

[05Ch 0092 001h]               Subtable Type : 00 [Processor Local APIC]
[05Dh 0093 001h]                      Length : 08
[05Eh 0094 001h]                Processor ID : 0C
[05Fh 0095 001h]               Local Apic ID : 14
[060h 0096 004h]       Flags (decoded below) : 00000001
                           Processor Enabled : 1
                      Runtime Online Capable : 0

[064h 0100 001h]               Subtable Type : 00 [Processor Local APIC]
[065h 0101 001h]                      Length : 08
[066h 0102 001h]                Processor ID : 0E
[067h 0103 001h]               Local Apic ID : 16
[068h 0104 004h]       Flags (decoded below) : 00000001
                           Processor Enabled : 1
                      Runtime Online Capable : 0

[06Ch 0108 001h]               Subtable Type : 00 [Processor Local APIC]
[06Dh 0109 001h]                      Length : 08
[06Eh 0110 001h]                Processor ID : 10
[06Fh 0111 001h]               Local Apic ID : 18
[070h 0112 004h]       Flags (decoded below) : 00000001
                           Processor Enabled : 1
                      Runtime Online Capable : 0

[074h 0116 001h]               Subtable Type : 00 [Processor Local APIC]
[075h 0117 001h]                      Length : 08
[076h 0118 001h]                Processor ID : 12
[077h 0119 001h]               Local Apic ID : 1A
[078h 0120 004h]       Flags (decoded below) : 00000001
                           Processor Enabled : 1
                      Runtime Online Capable : 0

[07Ch 0124 001h]               Subtable Type : 00 [Processor Local APIC]
[07Dh 0125 001h]                      Length : 08
[07Eh 0126 001h]                Processor ID : 14
[07Fh 0127 001h]               Local Apic ID : 1C
[080h 0128 004h]       Flags (decoded below) : 00000001
                           Processor Enabled : 1
                      Runtime Online Capable : 0

[084h 0132 001h]               Subtable Type : 00 [Processor Local APIC]
[085h 0133 001h]                      Length : 08
[086h 0134 001h]                Processor ID : 16
[087h 0135 001h]               Local Apic ID : 1E
[088h 0136 004h]       Flags (decoded below) : 00000001
                           Processor Enabled : 1
                      Runtime Online Capable : 0

[08Ch 0140 001h]               Subtable Type : 00 [Processor Local APIC]
[08Dh 0141 001h]                      Length : 08
[08Eh 0142 001h]                Processor ID : 01
[08Fh 0143 001h]               Local Apic ID : 01
[090h 0144 004h]       Flags (decoded below) : 00000001
                           Processor Enabled : 1
                      Runtime Online Capable : 0

[094h 0148 001h]               Subtable Type : 00 [Processor Local APIC]
[095h 0149 001h]                      Length : 08
[096h 0150 001h]                Processor ID : 03
[097h 0151 001h]               Local Apic ID : 03
[098h 0152 004h]       Flags (decoded below) : 00000001
                           Processor Enabled : 1
                      Runtime Online Capable : 0

[09Ch 0156 001h]               Subtable Type : 00 [Processor Local APIC]
[09Dh 0157 001h]                      Length : 08
[09Eh 0158 001h]                Processor ID : 05
[09Fh 0159 001h]               Local Apic ID : 05
[0A0h 0160 004h]       Flags (decoded below) : 00000001
                           Processor Enabled : 1
                      Runtime Online Capable : 0

[0A4h 0164 001h]               Subtable Type : 00 [Processor Local APIC]
[0A5h 0165 001h]                      Length : 08
[0A6h 0166 001h]                Processor ID : 07
[0A7h 0167 001h]               Local Apic ID : 07
[0A8h 0168 004h]       Flags (decoded below) : 00000001
                           Processor Enabled : 1
                      Runtime Online Capable : 0

[0ACh 0172 001h]               Subtable Type : 00 [Processor Local APIC]
[0ADh 0173 001h]                      Length : 08
[0AEh 0174 001h]                Processor ID : 09
[0AFh 0175 001h]               Local Apic ID : 11
[0B0h 0176 004h]       Flags (decoded below) : 00000001
                           Processor Enabled : 1
                      Runtime Online Capable : 0

[0B4h 0180 001h]               Subtable Type : 00 [Processor Local APIC]
[0B5h 0181 001h]                      Length : 08
[0B6h 0182 001h]                Processor ID : 0B
[0B7h 0183 001h]               Local Apic ID : 13
[0B8h 0184 004h]       Flags (decoded below) : 00000001
                           Processor Enabled : 1
                      Runtime Online Capable : 0

[0BCh 0188 001h]               Subtable Type : 00 [Processor Local APIC]
[0BDh 0189 001h]                      Length : 08
[0BEh 0190 001h]                Processor ID : 0D
[0BFh 0191 001h]               Local Apic ID : 15
[0C0h 0192 004h]       Flags (decoded below) : 00000001
                           Processor Enabled : 1
                      Runtime Online Capable : 0

[0C4h 0196 001h]               Subtable Type : 00 [Processor Local APIC]
[0C5h 0197 001h]                      Length : 08
[0C6h 0198 001h]                Processor ID : 0F
[0C7h 0199 001h]               Local Apic ID : 17
[0C8h 0200 004h]       Flags (decoded below) : 00000001
                           Processor Enabled : 1
                      Runtime Online Capable : 0

[0CCh 0204 001h]               Subtable Type : 00 [Processor Local APIC]
[0CDh 0205 001h]                      Length : 08
[0CEh 0206 001h]                Processor ID : 11
[0CFh 0207 001h]               Local Apic ID : 19
[0D0h 0208 004h]       Flags (decoded below) : 00000001
                           Processor Enabled : 1
                      Runtime Online Capable : 0

[0D4h 0212 001h]               Subtable Type : 00 [Processor Local APIC]
[0D5h 0213 001h]                      Length : 08
[0D6h 0214 001h]                Processor ID : 13
[0D7h 0215 001h]               Local Apic ID : 1B
[0D8h 0216 004h]       Flags (decoded below) : 00000001
                           Processor Enabled : 1
                      Runtime Online Capable : 0

[0DCh 0220 001h]               Subtable Type : 00 [Processor Local APIC]
[0DDh 0221 001h]                      Length : 08
[0DEh 0222 001h]                Processor ID : 15
[0DFh 0223 001h]               Local Apic ID : 1D
[0E0h 0224 004h]       Flags (decoded below) : 00000001
                           Processor Enabled : 1
                      Runtime Online Capable : 0

[0E4h 0228 001h]               Subtable Type : 00 [Processor Local APIC]
[0E5h 0229 001h]                      Length : 08
[0E6h 0230 001h]                Processor ID : 17
[0E7h 0231 001h]               Local Apic ID : 1F
[0E8h 0232 004h]       Flags (decoded below) : 00000001
                           Processor Enabled : 1
                      Runtime Online Capable : 0

[0ECh 0236 001h]               Subtable Type : 04 [Local APIC NMI]
[0EDh 0237 001h]                      Length : 06
[0EEh 0238 001h]                Processor ID : FF
[0EFh 0239 002h]       Flags (decoded below) : 0005
                                    Polarity : 1
                                Trigger Mode : 1
[0F1h 0241 001h]        Interrupt Input LINT : 01

[0F2h 0242 001h]               Subtable Type : 01 [I/O APIC]
[0F3h 0243 001h]                      Length : 0C
[0F4h 0244 001h]                 I/O Apic ID : 21
[0F5h 0245 001h]                    Reserved : 00
[0F6h 0246 004h]                     Address : FEC00000
[0FAh 0250 004h]                   Interrupt : 00000000

[0FEh 0254 001h]               Subtable Type : 01 [I/O APIC]
[0FFh 0255 001h]                      Length : 0C
[100h 0256 001h]                 I/O Apic ID : 22
[101h 0257 001h]                    Reserved : 00
[102h 0258 004h]                     Address : FEC01000
[106h 0262 004h]                   Interrupt : 00000018

[10Ah 0266 001h]               Subtable Type : 02 [Interrupt Source Override]
[10Bh 0267 001h]                      Length : 0A
[10Ch 0268 001h]                         Bus : 00
[10Dh 0269 001h]                      Source : 00
[10Eh 0270 004h]                   Interrupt : 00000002
[112h 0274 002h]       Flags (decoded below) : 0000
                                    Polarity : 0
                                Trigger Mode : 0

[114h 0276 001h]               Subtable Type : 02 [Interrupt Source Override]
[115h 0277 001h]                      Length : 0A
[116h 0278 001h]                         Bus : 00
[117h 0279 001h]                      Source : 01
[118h 0280 004h]                   Interrupt : 00000001
[11Ch 0284 002h]       Flags (decoded below) : 0007
                                    Polarity : 3
                                Trigger Mode : 1

[11Eh 0286 001h]               Subtable Type : 02 [Interrupt Source Override]
[11Fh 0287 001h]                      Length : 0A
[120h 0288 001h]                         Bus : 00
[121h 0289 001h]                      Source : 09
[122h 0290 004h]                   Interrupt : 00000009
[126h 0294 002h]       Flags (decoded below) : 000F
                                    Polarity : 3
                                Trigger Mode : 3

Raw Table Data: Length 296 (0x128)

    0000: 41 50 49 43 28 01 00 00 06 D5 41 4C 41 53 4B 41  // APIC(.....ALASKA
    0010: 41 20 4D 20 49 20 00 00 09 20 07 01 41 4D 49 20  // A M I ... ..AMI 
    0020: 13 00 01 00 00 00 E0 FE 01 00 00 00 00 08 00 00  // ................
    0030: 01 00 00 00 00 08 02 02 01 00 00 00 00 08 04 04  // ................
    0040: 01 00 00 00 00 08 06 06 01 00 00 00 00 08 08 10  // ................
    0050: 01 00 00 00 00 08 0A 12 01 00 00 00 00 08 0C 14  // ................
    0060: 01 00 00 00 00 08 0E 16 01 00 00 00 00 08 10 18  // ................
    0070: 01 00 00 00 00 08 12 1A 01 00 00 00 00 08 14 1C  // ................
    0080: 01 00 00 00 00 08 16 1E 01 00 00 00 00 08 01 01  // ................
    0090: 01 00 00 00 00 08 03 03 01 00 00 00 00 08 05 05  // ................
    00A0: 01 00 00 00 00 08 07 07 01 00 00 00 00 08 09 11  // ................
    00B0: 01 00 00 00 00 08 0B 13 01 00 00 00 00 08 0D 15  // ................
    00C0: 01 00 00 00 00 08 0F 17 01 00 00 00 00 08 11 19  // ................
    00D0: 01 00 00 00 00 08 13 1B 01 00 00 00 00 08 15 1D  // ................
    00E0: 01 00 00 00 00 08 17 1F 01 00 00 00 04 06 FF 05  // ................
    00F0: 00 01 01 0C 21 00 00 00 C0 FE 00 00 00 00 01 0C  // ....!...........
    0100: 22 00 00 10 C0 FE 18 00 00 00 02 0A 00 00 02 00  // "...............
    0110: 00 00 00 00 02 0A 00 01 01 00 00 00 07 00 02 0A  // ................
    0120: 00 09 09 00 00 00 0F 00                          // ........
