/*
 * Intel ACPI Component Architecture
 * AML/ASL+ Disassembler version 20220331 (64-bit version)
 * Copyright (c) 2000 - 2022 Intel Corporation
 * 
 * Disassembly of ./encoded/apic.dat, Sun Feb  4 13:33:29 2024
 *
 * ACPI Data Table [APIC]
 *
 * Format: [HexOffset DecimalOffset ByteLength]  FieldName : FieldValue (in hex)
 */

[000h 0000   4]                    Signature : "APIC"    [Multiple APIC Description Table (MADT)]
[004h 0004   4]                 Table Length : 000000E8
[008h 0008   1]                     Revision : 05
[009h 0009   1]                     Checksum : 41
[00Ah 0010   6]                       Oem ID : "ALASKA"
[010h 0016   8]                 Oem Table ID : "A M I "
[018h 0024   4]                 Oem Revision : 01072009
[01Ch 0028   4]              Asl Compiler ID : "AMI "
[020h 0032   4]        Asl Compiler Revision : 00010013

[024h 0036   4]           Local Apic Address : FEE00000
[028h 0040   4]        Flags (decoded below) : 00000001
                         PC-AT Compatibility : 1

[02Ch 0044   1]                Subtable Type : 00 [Processor Local APIC]
[02Dh 0045   1]                       Length : 08
[02Eh 0046   1]                 Processor ID : 01
[02Fh 0047   1]                Local Apic ID : 00
[030h 0048   4]        Flags (decoded below) : 00000001
                           Processor Enabled : 1
                      Runtime Online Capable : 0

[034h 0052   1]                Subtable Type : 00 [Processor Local APIC]
[035h 0053   1]                       Length : 08
[036h 0054   1]                 Processor ID : 02
[037h 0055   1]                Local Apic ID : 01
[038h 0056   4]        Flags (decoded below) : 00000001
                           Processor Enabled : 1
                      Runtime Online Capable : 0

[03Ch 0060   1]                Subtable Type : 00 [Processor Local APIC]
[03Dh 0061   1]                       Length : 08
[03Eh 0062   1]                 Processor ID : 03
[03Fh 0063   1]                Local Apic ID : 02
[040h 0064   4]        Flags (decoded below) : 00000001
                           Processor Enabled : 1
                      Runtime Online Capable : 0

[044h 0068   1]                Subtable Type : 00 [Processor Local APIC]
[045h 0069   1]                       Length : 08
[046h 0070   1]                 Processor ID : 04
[047h 0071   1]                Local Apic ID : 03
[048h 0072   4]        Flags (decoded below) : 00000001
                           Processor Enabled : 1
                      Runtime Online Capable : 0

[04Ch 0076   1]                Subtable Type : 00 [Processor Local APIC]
[04Dh 0077   1]                       Length : 08
[04Eh 0078   1]                 Processor ID : 05
[04Fh 0079   1]                Local Apic ID : 04
[050h 0080   4]        Flags (decoded below) : 00000001
                           Processor Enabled : 1
                      Runtime Online Capable : 0

[054h 0084   1]                Subtable Type : 00 [Processor Local APIC]
[055h 0085   1]                       Length : 08
[056h 0086   1]                 Processor ID : 06
[057h 0087   1]                Local Apic ID : 05
[058h 0088   4]        Flags (decoded below) : 00000001
                           Processor Enabled : 1
                      Runtime Online Capable : 0

[05Ch 0092   1]                Subtable Type : 00 [Processor Local APIC]
[05Dh 0093   1]                       Length : 08
[05Eh 0094   1]                 Processor ID : 07
[05Fh 0095   1]                Local Apic ID : 06
[060h 0096   4]        Flags (decoded below) : 00000001
                           Processor Enabled : 1
                      Runtime Online Capable : 0

[064h 0100   1]                Subtable Type : 00 [Processor Local APIC]
[065h 0101   1]                       Length : 08
[066h 0102   1]                 Processor ID : 08
[067h 0103   1]                Local Apic ID : 07
[068h 0104   4]        Flags (decoded below) : 00000001
                           Processor Enabled : 1
                      Runtime Online Capable : 0

[06Ch 0108   1]                Subtable Type : 00 [Processor Local APIC]
[06Dh 0109   1]                       Length : 08
[06Eh 0110   1]                 Processor ID : 09
[06Fh 0111   1]                Local Apic ID : 08
[070h 0112   4]        Flags (decoded below) : 00000001
                           Processor Enabled : 1
                      Runtime Online Capable : 0

[074h 0116   1]                Subtable Type : 00 [Processor Local APIC]
[075h 0117   1]                       Length : 08
[076h 0118   1]                 Processor ID : 0A
[077h 0119   1]                Local Apic ID : 09
[078h 0120   4]        Flags (decoded below) : 00000001
                           Processor Enabled : 1
                      Runtime Online Capable : 0

[07Ch 0124   1]                Subtable Type : 00 [Processor Local APIC]
[07Dh 0125   1]                       Length : 08
[07Eh 0126   1]                 Processor ID : 0B
[07Fh 0127   1]                Local Apic ID : 0A
[080h 0128   4]        Flags (decoded below) : 00000001
                           Processor Enabled : 1
                      Runtime Online Capable : 0

[084h 0132   1]                Subtable Type : 00 [Processor Local APIC]
[085h 0133   1]                       Length : 08
[086h 0134   1]                 Processor ID : 0C
[087h 0135   1]                Local Apic ID : 0B
[088h 0136   4]        Flags (decoded below) : 00000001
                           Processor Enabled : 1
                      Runtime Online Capable : 0

[08Ch 0140   1]                Subtable Type : 00 [Processor Local APIC]
[08Dh 0141   1]                       Length : 08
[08Eh 0142   1]                 Processor ID : 0D
[08Fh 0143   1]                Local Apic ID : 00
[090h 0144   4]        Flags (decoded below) : 00000000
                           Processor Enabled : 0
                      Runtime Online Capable : 0

[094h 0148   1]                Subtable Type : 00 [Processor Local APIC]
[095h 0149   1]                       Length : 08
[096h 0150   1]                 Processor ID : 0E
[097h 0151   1]                Local Apic ID : 00
[098h 0152   4]        Flags (decoded below) : 00000000
                           Processor Enabled : 0
                      Runtime Online Capable : 0

[09Ch 0156   1]                Subtable Type : 00 [Processor Local APIC]
[09Dh 0157   1]                       Length : 08
[09Eh 0158   1]                 Processor ID : 0F
[09Fh 0159   1]                Local Apic ID : 00
[0A0h 0160   4]        Flags (decoded below) : 00000000
                           Processor Enabled : 0
                      Runtime Online Capable : 0

[0A4h 0164   1]                Subtable Type : 00 [Processor Local APIC]
[0A5h 0165   1]                       Length : 08
[0A6h 0166   1]                 Processor ID : 10
[0A7h 0167   1]                Local Apic ID : 00
[0A8h 0168   4]        Flags (decoded below) : 00000000
                           Processor Enabled : 0
                      Runtime Online Capable : 0

[0ACh 0172   1]                Subtable Type : 04 [Local APIC NMI]
[0ADh 0173   1]                       Length : 06
[0AEh 0174   1]                 Processor ID : FF
[0AFh 0175   2]        Flags (decoded below) : 0005
                                    Polarity : 1
                                Trigger Mode : 1
[0B1h 0177   1]         Interrupt Input LINT : 01

[0B2h 0178   1]                Subtable Type : 01 [I/O APIC]
[0B3h 0179   1]                       Length : 0C
[0B4h 0180   1]                  I/O Apic ID : 21
[0B5h 0181   1]                     Reserved : 00
[0B6h 0182   4]                      Address : FEC00000
[0BAh 0186   4]                    Interrupt : 00000000

[0BEh 0190   1]                Subtable Type : 01 [I/O APIC]
[0BFh 0191   1]                       Length : 0C
[0C0h 0192   1]                  I/O Apic ID : 22
[0C1h 0193   1]                     Reserved : 00
[0C2h 0194   4]                      Address : FEC01000
[0C6h 0198   4]                    Interrupt : 00000018

[0CAh 0202   1]                Subtable Type : 02 [Interrupt Source Override]
[0CBh 0203   1]                       Length : 0A
[0CCh 0204   1]                          Bus : 00
[0CDh 0205   1]                       Source : 00
[0CEh 0206   4]                    Interrupt : 00000002
[0D2h 0210   2]        Flags (decoded below) : 0000
                                    Polarity : 0
                                Trigger Mode : 0

[0D4h 0212   1]                Subtable Type : 02 [Interrupt Source Override]
[0D5h 0213   1]                       Length : 0A
[0D6h 0214   1]                          Bus : 00
[0D7h 0215   1]                       Source : 01
[0D8h 0216   4]                    Interrupt : 00000001
[0DCh 0220   2]        Flags (decoded below) : 0007
                                    Polarity : 3
                                Trigger Mode : 1

[0DEh 0222   1]                Subtable Type : 02 [Interrupt Source Override]
[0DFh 0223   1]                       Length : 0A
[0E0h 0224   1]                          Bus : 00
[0E1h 0225   1]                       Source : 09
[0E2h 0226   4]                    Interrupt : 00000009
[0E6h 0230   2]        Flags (decoded below) : 000F
                                    Polarity : 3
                                Trigger Mode : 3

Raw Table Data: Length 232 (0xE8)

    0000: 41 50 49 43 E8 00 00 00 05 41 41 4C 41 53 4B 41  // APIC.....AALASKA
    0010: 41 20 4D 20 49 20 00 00 09 20 07 01 41 4D 49 20  // A M I ... ..AMI 
    0020: 13 00 01 00 00 00 E0 FE 01 00 00 00 00 08 01 00  // ................
    0030: 01 00 00 00 00 08 02 01 01 00 00 00 00 08 03 02  // ................
    0040: 01 00 00 00 00 08 04 03 01 00 00 00 00 08 05 04  // ................
    0050: 01 00 00 00 00 08 06 05 01 00 00 00 00 08 07 06  // ................
    0060: 01 00 00 00 00 08 08 07 01 00 00 00 00 08 09 08  // ................
    0070: 01 00 00 00 00 08 0A 09 01 00 00 00 00 08 0B 0A  // ................
    0080: 01 00 00 00 00 08 0C 0B 01 00 00 00 00 08 0D 00  // ................
    0090: 00 00 00 00 00 08 0E 00 00 00 00 00 00 08 0F 00  // ................
    00A0: 00 00 00 00 00 08 10 00 00 00 00 00 04 06 FF 05  // ................
    00B0: 00 01 01 0C 21 00 00 00 C0 FE 00 00 00 00 01 0C  // ....!...........
    00C0: 22 00 00 10 C0 FE 18 00 00 00 02 0A 00 00 02 00  // "...............
    00D0: 00 00 00 00 02 0A 00 01 01 00 00 00 07 00 02 0A  // ................
    00E0: 00 09 09 00 00 00 0F 00                          // ........
