/*
 * Intel ACPI Component Architecture
 * AML/ASL+ Disassembler version 20220331 (64-bit version)
 * Copyright (c) 2000 - 2022 Intel Corporation
 * 
 * Disassembly of ./encoded/tpm2.dat, Sun Feb  4 13:33:29 2024
 *
 * ACPI Data Table [TPM2]
 *
 * Format: [HexOffset DecimalOffset ByteLength]  FieldName : FieldValue (in hex)
 */

[000h 0000   4]                    Signature : "TPM2"    [Trusted Platform Module hardware interface Table]
[004h 0004   4]                 Table Length : 0000004C
[008h 0008   1]                     Revision : 04
[009h 0009   1]                     Checksum : 7E
[00Ah 0010   6]                       Oem ID : "ALASKA"
[010h 0016   8]                 Oem Table ID : "A M I "
[018h 0024   4]                 Oem Revision : 00000001
[01Ch 0028   4]              Asl Compiler ID : "AMI "
[020h 0032   4]        Asl Compiler Revision : 00000000

[024h 0036   2]               Platform Class : 0000
[026h 0038   2]                     Reserved : 0000
[028h 0040   8]              Control Address : 00000000FD210510
[030h 0048   4]                 Start Method : 02 [ACPI Start Method]

[034h 0052  12]            Method Parameters : 00 00 00 00 00 00 00 00 00 00 00 00
[040h 0064   4]           Minimum Log Length : 00010000
[044h 0068   8]                  Log Address : 00000000B8252000

Raw Table Data: Length 76 (0x4C)

    0000: 54 50 4D 32 4C 00 00 00 04 7E 41 4C 41 53 4B 41  // TPM2L....~ALASKA
    0010: 41 20 4D 20 49 20 00 00 01 00 00 00 41 4D 49 20  // A M I ......AMI 
    0020: 00 00 00 00 00 00 00 00 10 05 21 FD 00 00 00 00  // ..........!.....
    0030: 02 00 00 00 00 00 00 00 00 00 00 00 00 00 00 00  // ................
    0040: 00 00 01 00 00 20 25 B8 00 00 00 00              // ..... %.....
