edid-decode (hex):

00 ff ff ff ff ff ff 00 07 2e 05 18 10 29 20 22
32 20 01 03 80 07 0d 78 aa 00 00 00 00 00 00 00
00 00 00 00 00 00 01 01 01 01 01 01 01 01 01 01
01 01 01 01 01 01 f6 33 38 32 40 80 27 70 19 0a
30 01 0e e0 11 00 00 1e 4d 2b 38 32 40 80 27 70
19 0a 30 01 0e e0 11 00 00 1e a4 22 38 32 40 80
27 70 19 0a 30 01 0e e0 11 00 00 1e 00 00 00 fc
00 4c 4b 2d 47 4f 4c 44 53 50 56 35 38 0a 01 c9

02 03 04 00 b4 25 2a 20 31 a0 35 50 90 50 8a 08
ca 68 01 00 00 1e 9e 16 00 8c 30 00 38 40 30 0a
a8 01 c0 00 01 00 00 1e d8 1d d0 00 21 00 2f 50
80 48 2a 08 b4 40 01 00 00 1e 04 18 88 e0 20 80
2b 40 70 40 ea 04 a2 20 01 00 00 1e d8 0e 58 af
20 20 1f 30 58 38 2a 04 96 c8 00 00 00 1e f1 21
00 10 31 56 32 50 88 50 5a 08 c0 55 01 00 00 1e
00 00 00 00 00 00 00 00 00 00 00 00 00 00 00 42

----------------

Block 0, Base EDID:
  EDID Structure Version & Revision: 1.3
  Vendor & Product Identification:
    Manufacturer: AYN
    Model: 6149
    Serial Number: 572533008
    Made in: week 50 of 2022
  Basic Display Parameters & Features:
    Digital display
    Maximum image size: 7 cm x 13 cm
    Gamma: 2.20
    DPMS levels: Standby Off
    RGB color display
    First detailed timing is the preferred timing
  Color Characteristics:
    Red  : 0.0000, 0.0000
    Green: 0.0000, 0.0000
    Blue : 0.0000, 0.0000
    White: 0.0000, 0.0000
  Established Timings I & II: none
  Standard Timings: none
  Detailed Timing Descriptors:
    DTD 1:  1080x1920   60.090257 Hz   9:16   117.717 kHz    133.020000 MHz (270 mm x 480 mm)
      Modeline "1080x1920_60.09" 133.020  1080 1105 1115 1130  1920 1923 1939 1959  +HSync +VSync
    DTD 2:  1080x1920   50.075214 Hz   9:16    98.097 kHz    110.850000 MHz (270 mm x 480 mm)
      Modeline "1080x1920_50.08" 110.850  1080 1105 1115 1130  1920 1923 1939 1959  +HSync +VSync
    DTD 3:  1080x1920   40.060172 Hz   9:16    78.478 kHz     88.680000 MHz (270 mm x 480 mm)
      Modeline "1080x1920_40.06" 88.680  1080 1105 1115 1130  1920 1923 1939 1959  +HSync +VSync
    Display Product Name: 'LK-GOLDSPV58'
  Extension blocks: 1
Checksum: 0xc9

----------------

Block 1, CTA-861 Extension Block:
  Revision: 3
  Native detailed modes: 0
  Detailed Timing Descriptors:
    DTD 4:   810x1440   58.878287 Hz   9:16    87.905 kHz     96.520000 MHz (202 mm x 360 mm)
      Modeline "810x1440_58.88" 96.520  810 954 1034 1098  1440 1480 1490 1493  +HSync +VSync
    DTD 5:   768x1024   59.043074 Hz   3:4     63.767 kHz     57.900000 MHz (192 mm x 256 mm)
      Modeline "768x1024_59.04" 57.900  768 816 826 908  1024 1034 1058 1080  +HSync +VSync
    DTD 6:   720x1280   58.989215 Hz   9:16    78.279 kHz     76.400000 MHz (180 mm x 320 mm)
      Modeline "720x1280_58.99" 76.400  720 848 920 976  1280 1314 1324 1327  +HSync +VSync
    DTD 7:   648x1152   58.999655 Hz   9:16    70.505 kHz     61.480000 MHz (162 mm x 288 mm)
      Modeline "648x1152_59.00" 61.480  648 760 824 872  1152 1182 1192 1195  +HSync +VSync
    DTD 8:   600x800    59.003921 Hz   3:4     49.032 kHz     38.000000 MHz (150 mm x 200 mm)
      Modeline "600x800_59.00" 38.000  600 688 744 775  800 818 828 831  +HSync +VSync
    DTD 9:   768x1366   59.002879 Hz 384:683   83.548 kHz     86.890000 MHz (192 mm x 341 mm)
      Modeline "768x1366_59.00" 86.890  768 904 984 1040  1366 1403 1413 1416  +HSync +VSync
Checksum: 0x42  Unused space in Extension Block: 15 bytes

----------------

Preferred Video Timing if only Block 0 is parsed:
  DTD   1:  1080x1920   60.090257 Hz   9:16   117.717 kHz    133.020000 MHz (270 mm x 480 mm)
    Modeline "1080x1920_60.09" 133.020  1080 1105 1115 1130  1920 1923 1939 1959  +HSync +VSync

----------------

Preferred Video Timing if Block 0 and CTA-861 Blocks are parsed:
  DTD   1:  1080x1920   60.090257 Hz   9:16   117.717 kHz    133.020000 MHz (270 mm x 480 mm)
    Modeline "1080x1920_60.09" 133.020  1080 1105 1115 1130  1920 1923 1939 1959  +HSync +VSync
