/*
 * Intel ACPI Component Architecture
 * AML/ASL+ Disassembler version 20200717 (64-bit version)
 * Copyright (c) 2000 - 2020 Intel Corporation
 * 
 * Disassembly of ./encoded/tpm2.dat, Wed Feb 21 23:56:42 2024
 *
 * ACPI Data Table [TPM2]
 *
 * Format: [HexOffset DecimalOffset ByteLength]  FieldName : FieldValue
 */

[000h 0000   4]                    Signature : "TPM2"    [Trusted Platform Module hardware interface table]
[004h 0004   4]                 Table Length : 0000004C
[008h 0008   1]                     Revision : 04
[009h 0009   1]                     Checksum : B8
[00Ah 0010   6]                       Oem ID : "LENOVO"
[010h 0016   8]                 Oem Table ID : "CB-01   "
[018h 0024   4]                 Oem Revision : 00000001
[01Ch 0028   4]              Asl Compiler ID : "ACPI"
[020h 0032   4]        Asl Compiler Revision : 00040000

[024h 0036   2]               Platform Class : 0000
[026h 0038   2]                     Reserved : 0000
[028h 0040   8]              Control Address : 00000000FDE10510
[030h 0048   4]                 Start Method : 02 [ACPI Start Method]

[034h 0052  12]            Method Parameters : 00 00 00 00 00 00 00 00 00 00 00 00
[040h 0064   4]           Minimum Log Length : 00010000
[044h 0068   8]                  Log Address : 00000000B5A22000

Raw Table Data: Length 76 (0x4C)

    0000: 54 50 4D 32 4C 00 00 00 04 B8 4C 45 4E 4F 56 4F  // TPM2L.....LENOVO
    0010: 43 42 2D 30 31 20 20 20 01 00 00 00 41 43 50 49  // CB-01   ....ACPI
    0020: 00 00 04 00 00 00 00 00 10 05 E1 FD 00 00 00 00  // ................
    0030: 02 00 00 00 00 00 00 00 00 00 00 00 00 00 00 00  // ................
    0040: 00 00 01 00 00 20 A2 B5 00 00 00 00              // ..... ......
