/*
 * Intel ACPI Component Architecture
 * AML/ASL+ Disassembler version 20230628 (64-bit version)
 * Copyright (c) 2000 - 2023 Intel Corporation
 * 
 * Disassembly of ./encoded/fidt.dat, Sat Dec 16 15:58:03 2023
 *
 * ACPI Data Table [FIDT]
 *
 * Format: [HexOffset DecimalOffset ByteLength]  FieldName : FieldValue (in hex)
 */

[000h 0000 004h]                   Signature : "FIDT"    
[004h 0004 004h]                Table Length : 0000009C
[008h 0008 001h]                    Revision : 01
[009h 0009 001h]                    Checksum : 1E
[00Ah 0010 006h]                      Oem ID : "ALASKA"
[010h 0016 008h]                Oem Table ID : "A M I"
[018h 0024 004h]                Oem Revision : 01072009
[01Ch 0028 004h]             Asl Compiler ID : "AMI "
[020h 0032 004h]       Asl Compiler Revision : 00010013


**** Unknown ACPI table signature [FIDT]


Raw Table Data: Length 156 (0x9C)

    0000: 46 49 44 54 9C 00 00 00 01 1E 41 4C 41 53 4B 41  // FIDT......ALASKA
    0010: 41 20 4D 20 49 00 00 00 09 20 07 01 41 4D 49 20  // A M I.... ..AMI 
    0020: 13 00 01 00 24 46 49 44 04 78 00 31 41 5A 4B 49  // ....$FID.x.1AZKI
    0030: 30 31 33 00 3D 23 BD 51 B5 EB 58 18 FD F1 5C 8D  // 013.=#.Q..X...\.
    0040: 32 75 BA 5D 30 35 00 32 39 00 30 30 00 31 33 00  // 2u.]05.29.00.13.
    0050: E7 07 0B 1D 0B 23 0A FF FF 41 4C 41 53 4B 41 41  // .....#...ALASKAA
    0060: 20 4D 20 49 00 00 00 31 00 00 00 FF FF FF FF FF  //  M I...1........
    0070: FF FF FF FF FF FF FF FF FF FF FF FF FF FF FF FF  // ................
    0080: FF FF FF FF FF FF FF FF FF FF FF FF FF FF FF FF  // ................
    0090: FF FF FF FF FF FF FF FF FF FF FF FF              // ............
