/*
 * Intel ACPI Component Architecture
 * AML/ASL+ Disassembler version 20250404 (64-bit version)
 * Copyright (c) 2000 - 2025 Intel Corporation
 * 
 * Disassembly of ./encoded/fidt.dat
 *
 * ACPI Data Table [FIDT]
 *
 * Format: [HexOffset DecimalOffset ByteLength]  FieldName : FieldValue (in hex)
 */

[000h 0000 004h]                   Signature : "FIDT"    
[004h 0004 004h]                Table Length : 0000009C
[008h 0008 001h]                    Revision : 01
[009h 0009 001h]                    Checksum : 4A
[00Ah 0010 006h]                      Oem ID : "ALASKA"
[010h 0016 008h]                Oem Table ID : "A M I"
[018h 0024 004h]                Oem Revision : 01072009
[01Ch 0028 004h]             Asl Compiler ID : "AMI "
[020h 0032 004h]       Asl Compiler Revision : 00010013


**** Unknown ACPI table signature [FIDT]


Raw Table Data: Length 156 (0x9C)

    0000: 46 49 44 54 9C 00 00 00 01 4A 41 4C 41 53 4B 41  // FIDT.....JALASKA
    0010: 41 20 4D 20 49 00 00 00 09 20 07 01 41 4D 49 20  // A M I.... ..AMI 
    0020: 13 00 01 00 24 46 49 44 04 78 00 31 42 41 51 41  // ....$FID.x.1BAQA
    0030: 30 32 36 00 3D 23 BD 51 B5 EB 58 18 FD F1 5C 8D  // 026.=#.Q..X...\.
    0040: 32 75 BA 5D 30 35 00 32 39 00 30 30 00 32 36 00  // 2u.]05.29.00.26.
    0050: E9 07 05 0E 14 1C 01 FF FF 41 4C 41 53 4B 41 41  // .........ALASKAA
    0060: 20 4D 20 49 00 00 00 31 00 00 00 FF FF FF FF FF  //  M I...1........
    0070: FF FF FF FF FF FF FF FF FF FF FF FF FF FF FF FF  // ................
    0080: FF FF FF FF FF FF FF FF FF FF FF FF FF FF FF FF  // ................
    0090: FF FF FF FF FF FF FF FF FF FF FF FF              // ............
