/*
 * Intel ACPI Component Architecture
 * AML/ASL+ Disassembler version 20250404 (64-bit version)
 * Copyright (c) 2000 - 2025 Intel Corporation
 * 
 * Disassembly of ./encoded/msdm.dat
 *
 * ACPI Data Table [MSDM]
 *
 * Format: [HexOffset DecimalOffset ByteLength]  FieldName : FieldValue (in hex)
 */

[000h 0000 004h]                   Signature : "MSDM"    [Microsoft Data Management Table]
[004h 0004 004h]                Table Length : 00000055
[008h 0008 001h]                    Revision : 03
[009h 0009 001h]                    Checksum : 42
[00Ah 0010 006h]                      Oem ID : "ALASKA"
[010h 0016 008h]                Oem Table ID : "A M I "
[018h 0024 004h]                Oem Revision : 01072009
[01Ch 0028 004h]             Asl Compiler ID : "AMI "
[020h 0032 004h]       Asl Compiler Revision : 01000013

[024h 0036 031h] Software Licensing Structure : 01 00 00 00 00 00 00 00 01 00 00 00 00 00 00 00 /* ................ */\
/* 034h 0052  16 */                            1D 00 00 00 4E 48 52 42 59 2D 32 33 47 38 50 2D /* ....NHRBY-23G8P- */\
/* 044h 0068  16 */                            4A 57 56 48 44 2D 57 34 58 46 52 2D 48 51 58 43 /* JWVHD-W4XFR-HQXC */\
/* 054h 0084   1 */                            59                                              /* Y */\

Raw Table Data: Length 85 (0x55)

    0000: 4D 53 44 4D 55 00 00 00 03 42 41 4C 41 53 4B 41  // MSDMU....BALASKA
    0010: 41 20 4D 20 49 20 00 00 09 20 07 01 41 4D 49 20  // A M I ... ..AMI 
    0020: 13 00 00 01 01 00 00 00 00 00 00 00 01 00 00 00  // ................
    0030: 00 00 00 00 1D 00 00 00 4E 48 52 42 59 2D 32 33  // ........NHRBY-23
    0040: 47 38 50 2D 4A 57 56 48 44 2D 57 34 58 46 52 2D  // G8P-JWVHD-W4XFR-
    0050: 48 51 58 43 59                                   // HQXCY
