/*
 * Intel ACPI Component Architecture
 * AML/ASL+ Disassembler version 20221020 (64-bit version)
 * Copyright (c) 2000 - 2022 Intel Corporation
 * 
 * Disassembly of ./encoded/cdit.dat, Tue Jan  9 17:11:45 2024
 *
 * ACPI Data Table [CDIT]
 *
 * Format: [HexOffset DecimalOffset ByteLength]  FieldName : FieldValue (in hex)
 */

[000h 0000 004h]                   Signature : "CDIT"    
[004h 0004 004h]                Table Length : 00000029
[008h 0008 001h]                    Revision : 01
[009h 0009 001h]                    Checksum : E7
[00Ah 0010 006h]                      Oem ID : "AMD"
[010h 0016 008h]                Oem Table ID : "AmdTable"
[018h 0024 004h]                Oem Revision : 00000001
[01Ch 0028 004h]             Asl Compiler ID : "AMD "
[020h 0032 004h]       Asl Compiler Revision : 00000001


**** Unknown ACPI table signature [CDIT]


Raw Table Data: Length 41 (0x29)

    0000: 43 44 49 54 29 00 00 00 01 E7 41 4D 44 00 00 00  // CDIT).....AMD...
    0010: 41 6D 64 54 61 62 6C 65 01 00 00 00 41 4D 44 20  // AmdTable....AMD 
    0020: 01 00 00 00 01 00 00 00 0A                       // .........
