/*
 * Intel ACPI Component Architecture
 * AML/ASL+ Disassembler version 20221020 (64-bit version)
 * Copyright (c) 2000 - 2022 Intel Corporation
 * 
 * Disassembly of ./encoded/tpm2.dat, Tue Jan  9 17:11:45 2024
 *
 * ACPI Data Table [TPM2]
 *
 * Format: [HexOffset DecimalOffset ByteLength]  FieldName : FieldValue (in hex)
 */

[000h 0000 004h]                   Signature : "TPM2"    [Trusted Platform Module hardware interface Table]
[004h 0004 004h]                Table Length : 0000004C
[008h 0008 001h]                    Revision : 04
[009h 0009 001h]                    Checksum : 7E
[00Ah 0010 006h]                      Oem ID : "ALASKA"
[010h 0016 008h]                Oem Table ID : "A M I "
[018h 0024 004h]                Oem Revision : 00000001
[01Ch 0028 004h]             Asl Compiler ID : "AMI "
[020h 0032 004h]       Asl Compiler Revision : 00000000

[024h 0036 002h]              Platform Class : 0000
[026h 0038 002h]                    Reserved : 0000
[028h 0040 008h]             Control Address : 00000000FD210510
[030h 0048 004h]                Start Method : 02 [ACPI Start Method]

[034h 0052 00Ch]           Method Parameters : 00 00 00 00 00 00 00 00 00 00 00 00
[040h 0064 004h]          Minimum Log Length : 00010000
[044h 0068 008h]                 Log Address : 00000000B8252000

Raw Table Data: Length 76 (0x4C)

    0000: 54 50 4D 32 4C 00 00 00 04 7E 41 4C 41 53 4B 41  // TPM2L....~ALASKA
    0010: 41 20 4D 20 49 20 00 00 01 00 00 00 41 4D 49 20  // A M I ......AMI 
    0020: 00 00 00 00 00 00 00 00 10 05 21 FD 00 00 00 00  // ..........!.....
    0030: 02 00 00 00 00 00 00 00 00 00 00 00 00 00 00 00  // ................
    0040: 00 00 01 00 00 20 25 B8 00 00 00 00              // ..... %.....
