/*
 * Intel ACPI Component Architecture
 * AML/ASL+ Disassembler version 20220331 (64-bit version)
 * Copyright (c) 2000 - 2022 Intel Corporation
 * 
 * Disassembly of ./encoded/mcfg.dat, Sun Oct 27 21:50:26 2024
 *
 * ACPI Data Table [MCFG]
 *
 * Format: [HexOffset DecimalOffset ByteLength]  FieldName : FieldValue (in hex)
 */

[000h 0000   4]                    Signature : "MCFG"    [Memory Mapped Configuration Table]
[004h 0004   4]                 Table Length : 0000003C
[008h 0008   1]                     Revision : 01
[009h 0009   1]                     Checksum : AE
[00Ah 0010   6]                       Oem ID : "MSI_NB"
[010h 0016   8]                 Oem Table ID : "MEGABOOK"
[018h 0024   4]                 Oem Revision : 01072009
[01Ch 0028   4]              Asl Compiler ID : "AMI "
[020h 0032   4]        Asl Compiler Revision : 01000013

[024h 0036   8]                     Reserved : 0000000000000000

[02Ch 0044   8]                 Base Address : 00000000C0000000
[034h 0052   2]         Segment Group Number : 0000
[036h 0054   1]             Start Bus Number : 00
[037h 0055   1]               End Bus Number : DF
[038h 0056   4]                     Reserved : 00000000

Raw Table Data: Length 60 (0x3C)

    0000: 4D 43 46 47 3C 00 00 00 01 AE 4D 53 49 5F 4E 42  // MCFG<.....MSI_NB
    0010: 4D 45 47 41 42 4F 4F 4B 09 20 07 01 41 4D 49 20  // MEGABOOK. ..AMI 
    0020: 13 00 00 01 00 00 00 00 00 00 00 00 00 00 00 C0  // ................
    0030: 00 00 00 00 00 00 00 DF 00 00 00 00              // ............
