/*
 * Intel ACPI Component Architecture
 * AML/ASL+ Disassembler version 20220331 (64-bit version)
 * Copyright (c) 2000 - 2022 Intel Corporation
 * 
 * Disassembly of ./encoded/cdit.dat, Tue Feb 20 19:59:03 2024
 *
 * ACPI Data Table [CDIT]
 *
 * Format: [HexOffset DecimalOffset ByteLength]  FieldName : FieldValue (in hex)
 */

[000h 0000   4]                    Signature : "CDIT"    
[004h 0004   4]                 Table Length : 00000029
[008h 0008   1]                     Revision : 01
[009h 0009   1]                     Checksum : 3F
[00Ah 0010   6]                       Oem ID : "LENOVO"
[010h 0016   8]                 Oem Table ID : "CB-01   "
[018h 0024   4]                 Oem Revision : 00000001
[01Ch 0028   4]              Asl Compiler ID : "ACPI"
[020h 0032   4]        Asl Compiler Revision : 00040000


**** Unknown ACPI table signature [CDIT]


Raw Table Data: Length 41 (0x29)

    0000: 43 44 49 54 29 00 00 00 01 3F 4C 45 4E 4F 56 4F  // CDIT)....?LENOVO
    0010: 43 42 2D 30 31 20 20 20 01 00 00 00 41 43 50 49  // CB-01   ....ACPI
    0020: 00 00 04 00 01 00 00 00 0A                       // .........
