/*
 * Intel ACPI Component Architecture
 * AML/ASL+ Disassembler version 20240927 (64-bit version)
 * Copyright (c) 2000 - 2023 Intel Corporation
 * 
 * Disassembly of ./encoded/wsmt.dat
 *
 * ACPI Data Table [WSMT]
 *
 * Format: [HexOffset DecimalOffset ByteLength]  FieldName : FieldValue (in hex)
 */

[000h 0000 004h]                   Signature : "WSMT"    [Windows SMM Security Mitigations Table]
[004h 0004 004h]                Table Length : 00000028
[008h 0008 001h]                    Revision : 01
[009h 0009 001h]                    Checksum : 2C
[00Ah 0010 006h]                      Oem ID : "MSI_NB"
[010h 0016 008h]                Oem Table ID : "MEGABOOK"
[018h 0024 004h]                Oem Revision : 01072009
[01Ch 0028 004h]             Asl Compiler ID : "AMI "
[020h 0032 004h]       Asl Compiler Revision : 00010013

[024h 0036 004h]            Protection Flags : 00000007
                          FIXED_COMM_BUFFERS : 1
           COMM_BUFFER_NESTED_PTR_PROTECTION : 1
                  SYSTEM_RESOURCE_PROTECTION : 1

Raw Table Data: Length 40 (0x28)

    0000: 57 53 4D 54 28 00 00 00 01 2C 4D 53 49 5F 4E 42  // WSMT(....,MSI_NB
    0010: 4D 45 47 41 42 4F 4F 4B 09 20 07 01 41 4D 49 20  // MEGABOOK. ..AMI 
    0020: 13 00 01 00 07 00 00 00                          // ........
