/*
 * Intel ACPI Component Architecture
 * AML/ASL+ Disassembler version 20230628 (64-bit version)
 * Copyright (c) 2000 - 2023 Intel Corporation
 * 
 * Disassembly of ./encoded/mcfg.dat, Thu Feb  1 17:50:13 2024
 *
 * ACPI Data Table [MCFG]
 *
 * Format: [HexOffset DecimalOffset ByteLength]  FieldName : FieldValue (in hex)
 */

[000h 0000 004h]                   Signature : "MCFG"    [Memory Mapped Configuration Table]
[004h 0004 004h]                Table Length : 0000003C
[008h 0008 001h]                    Revision : 01
[009h 0009 001h]                    Checksum : 84
[00Ah 0010 006h]                      Oem ID : "ALASKA"
[010h 0016 008h]                Oem Table ID : "A M I"
[018h 0024 004h]                Oem Revision : 01072009
[01Ch 0028 004h]             Asl Compiler ID : "MSFT"
[020h 0032 004h]       Asl Compiler Revision : 00010013

[024h 0036 008h]                    Reserved : 0000000000000000

[02Ch 0044 008h]                Base Address : 00000000E0000000
[034h 0052 002h]        Segment Group Number : 0000
[036h 0054 001h]            Start Bus Number : 00
[037h 0055 001h]              End Bus Number : FF
[038h 0056 004h]                    Reserved : 00000000

Raw Table Data: Length 60 (0x3C)

    0000: 4D 43 46 47 3C 00 00 00 01 84 41 4C 41 53 4B 41  // MCFG<.....ALASKA
    0010: 41 20 4D 20 49 00 00 00 09 20 07 01 4D 53 46 54  // A M I.... ..MSFT
    0020: 13 00 01 00 00 00 00 00 00 00 00 00 00 00 00 E0  // ................
    0030: 00 00 00 00 00 00 00 FF 00 00 00 00              // ............
