/*
 * Intel ACPI Component Architecture
 * AML/ASL+ Disassembler version 20250404 (64-bit version)
 * Copyright (c) 2000 - 2025 Intel Corporation
 * 
 * Disassembly of ./encoded/uefi.dat
 *
 * ACPI Data Table [UEFI]
 *
 * Format: [HexOffset DecimalOffset ByteLength]  FieldName : FieldValue (in hex)
 */

[000h 0000 004h]                   Signature : "UEFI"    [UEFI Boot Optimization Table]
[004h 0004 004h]                Table Length : 00000048
[008h 0008 001h]                    Revision : 01
[009h 0009 001h]                    Checksum : 01
[00Ah 0010 006h]                      Oem ID : "_ASUS_"
[010h 0016 008h]                Oem Table ID : "Notebook"
[018h 0024 004h]                Oem Revision : 01072009
[01Ch 0028 004h]             Asl Compiler ID : "AMI "
[020h 0032 004h]       Asl Compiler Revision : 01000013

[024h 0036 010h]             UUID Identifier : BAEDB05D-F2CE-485B-B454-C251870CDEFC
[034h 0052 002h]                 Data Offset : 0036

Raw Table Data: Length 72 (0x48)

    0000: 55 45 46 49 48 00 00 00 01 01 5F 41 53 55 53 5F  // UEFIH....._ASUS_
    0010: 4E 6F 74 65 62 6F 6F 6B 09 20 07 01 41 4D 49 20  // Notebook. ..AMI 
    0020: 13 00 00 01 5D B0 ED BA CE F2 5B 48 B4 54 C2 51  // ....].....[H.T.Q
    0030: 87 0C DE FC 36 00 02 00 18 C1 FE 77 00 00 00 00  // ....6......w....
    0040: D9 00 00 00 18 00 00 00                          // ........
